; ModuleID = 'source-C-CXX/25/680.c'
source_filename = "source-C-CXX/25/680.c"
target datalayout = "e-m:e-p270:32:32-p271:32:32-p272:64:64-i64:64-f80:128-n8:16:32:64-S128"
target triple = "x86_64-pc-linux-gnu"

; Function Attrs: nounwind sspstrong uwtable
define dso_local i32 @main(i32 %0, i8** nocapture readnone %1) local_unnamed_addr #0 {
  %3 = alloca [101 x i8], align 16
  %4 = getelementptr inbounds [101 x i8], [101 x i8]* %3, i64 0, i64 0
  call void @llvm.lifetime.start.p0i8(i64 101, i8* nonnull %4) #6
  call void @llvm.memset.p0i8.i64(i8* noundef nonnull align 16 dereferenceable(101) %4, i8 0, i64 101, i1 false)
  store i8 32, i8* %4, align 16
  %5 = call i32 (i8*, ...) bitcast (i32 (...)* @gets to i32 (i8*, ...)*)(i8* nonnull %4) #6
  %6 = load i8, i8* %4, align 16
  %7 = icmp eq i8 %6, 0
  br i1 %7, label %30, label %8

8:                                                ; preds = %2, %27
  %9 = phi i8 [ %29, %27 ], [ %6, %2 ]
  %10 = phi i64 [ %24, %27 ], [ 0, %2 ]
  %11 = icmp eq i8 %9, 32
  br i1 %11, label %12, label %19

12:                                               ; preds = %8
  %13 = add nuw i64 %10, 1
  %14 = getelementptr inbounds [101 x i8], [101 x i8]* %3, i64 0, i64 %13
  %15 = load i8, i8* %14, align 1, !tbaa !5
  %16 = icmp eq i8 %15, 32
  br i1 %16, label %23, label %17

17:                                               ; preds = %12
  %18 = call i32 @putchar(i32 32)
  br label %23

19:                                               ; preds = %8
  %20 = sext i8 %9 to i32
  %21 = call i32 @putchar(i32 %20)
  %22 = add nuw i64 %10, 1
  br label %23

23:                                               ; preds = %12, %17, %19
  %24 = phi i64 [ %13, %12 ], [ %13, %17 ], [ %22, %19 ]
  %25 = call i64 @strlen(i8* noundef nonnull %4) #7
  %26 = icmp ugt i64 %25, %24
  br i1 %26, label %27, label %30, !llvm.loop !8

27:                                               ; preds = %23
  %28 = getelementptr inbounds [101 x i8], [101 x i8]* %3, i64 0, i64 %24
  %29 = load i8, i8* %28, align 1, !tbaa !5
  br label %8

30:                                               ; preds = %23, %2
  call void @llvm.lifetime.end.p0i8(i64 101, i8* nonnull %4) #6
  ret i32 0
}

; Function Attrs: argmemonly mustprogress nofree nosync nounwind willreturn
declare void @llvm.lifetime.start.p0i8(i64 immarg, i8* nocapture) #1

; Function Attrs: argmemonly mustprogress nofree nounwind willreturn writeonly
declare void @llvm.memset.p0i8.i64(i8* nocapture writeonly, i8, i64, i1 immarg) #2

declare i32 @gets(...) local_unnamed_addr #3

; Function Attrs: argmemonly mustprogress nofree nounwind readonly willreturn
declare i64 @strlen(i8* nocapture) local_unnamed_addr #4

; Function Attrs: argmemonly mustprogress nofree nosync nounwind willreturn
declare void @llvm.lifetime.end.p0i8(i64 immarg, i8* nocapture) #1

; Function Attrs: nofree nounwind
declare noundef i32 @putchar(i32 noundef) local_unnamed_addr #5


!llvm.module.flags = !{!0, !1, !2, !3}
!llvm.ident = !{!4}

!0 = !{i32 1, !"wchar_size", i32 4}
!1 = !{i32 7, !"PIC Level", i32 2}
!2 = !{i32 7, !"PIE Level", i32 2}
!3 = !{i32 7, !"uwtable", i32 1}
!4 = !{!"clang version 13.0.0"}
!5 = !{!6, !6, i64 0}
!6 = !{!"omnipotent char", !7, i64 0}
!7 = !{!"Simple C/C++ TBAA"}
!8 = distinct !{!8, !9}
!9 = !{!"llvm.loop.mustprogress"}
